; Function Attrs: mustprogress nofree norecurse nosync nounwind willreturn memory(argmem: read) uwtable
define i32 @PQstatus(ptr noundef readonly captures(address_is_null) %0) local_unnamed_addr #14 {
  %.not = icmp eq ptr %0, null
  br i1 %.not, label %5, label %2

2:                                                ; preds = %1
  %3 = getelementptr inbounds nuw i8, ptr %0, i64 416
  %4 = load i32, ptr %3, align 8
  br label %5

5:                                                ; preds = %1, %2
  %.0 = phi i32 [ %4, %2 ], [ 1, %1 ]
  ret i32 %.0
}